(lp1
(dp2
S'name'
p3
S'ACS Engines + Mounts'
p4
sS'mass_lbm'
p5
F1.333
sS'pov_w'
p6
F1
sS'autoCalc'
p7
I1
sS'pov_h'
p8
F1
sS'className'
p9
S'SimpleEqnMass'
p10
sS'eqn'
p11
S'1.333'
p12
sS'pov_d'
p13
F1
sS'type'
p14
S'inert'
p15
sS'desc'
p16
S'HLACS and LLACS Engines'
p17
sa(dp18
S'etaKin'
p19
F0.97430410446720239
sS'Fvac'
p20
F202
sS'Dcham'
p21
F0.99329348002710172
sS'etaERE'
p22
F0.93806852044650668
sS'PcFace'
p23
F393.01686650972147
sS'cxw'
p24
F0.90000000000000002
sS'pcentBell'
p25
F80
sS'WtNoz'
p26
F0.20384983154854078
sS'rhoInj'
p27
F0.16
sS'WtInj'
p28
F0.14901431428690573
sS'syInj'
p29
F119000
sS'Pc'
p30
F375
sS'xlnOverLcham'
p31
F0.90000000000000002
sS'etaKinInp'
p32
F1
sS'eNoz'
p33
F35000000
sS'WtMisc'
p34
F0.069208292811252403
sS'LchamMin'
p35
F1.3999999999999999
sS'rhoNoz'
p36
F0.30961090000000002
sS'SAnoz'
p37
F32.920325406589491
sS'etaNoz'
p38
F0.94842253384749509
sS'matlNoz'
p39
S'Cb103'
p40
sS'fuelName'
p41
S'MMH'
p42
sS'Lcham'
p43
F1.3999999999999999
sS'thkNozMin'
p44
F0.02
sS'matlInj'
p45
S'Ti'
p46
sg14
g15
sS'WtChamber'
p47
F0.023122552385872273
sS'thkNoz'
p48
F0.02
sS'iprop'
p49
S'N2O4/MMH'
p50
sS'WtValves'
p51
F0.089999999999999997
sS'IspDel'
p52
F300
sS'eInj'
p53
F15000000
sS'CstarODE'
p54
F5738.8566471361746
sS'Pamb'
p55
F0
sS'Lengine'
p56
F6.3817899847493953
sS'effIsp'
p57
F0.88968532308444659
sS'cxwInj'
p58
F1
sS'FtoW'
p59
F277.4341817878356
sg5
F1.4562012416658667
sg6
F3.3000000000128571
sg7
I1
sS'etaDiv'
p60
F0.9911835577359942
sS'syNoz'
p61
F22020
sS'Dexit'
p62
F3.3000000000128571
sS'WtAcoustic'
p63
F0.26380569878179927
sS'Cstar'
p64
F5383.4407640336312
sS'ratmlr'
p65
F1.2441516673281077
sg8
F6.3817899847493953
sS'valveMassInput'
p66
F0.088105726872246701
sg13
F3.3000000000128571
sS'Lnoz'
p67
F3.9884965047222933
sS'dChar'
p68
F0.59573658450792322
sS'Dt'
p69
F0.62821395637612198
sg3
S'Axial Engine'
p70
sS'CR'
p71
F2.5
sS'xln'
p72
F1.26
sS'inputIspDel'
p73
I0
sS'calcEtaNoz'
p74
I1
sS'LoverDt'
p75
F2
sS'thkCham'
p76
F0.02
sS'tmingNoz'
p77
F0.02
sS'cxwValves'
p78
F1
sS'minBipropValveWt'
p79
F0.20000000000000001
sS'xlc'
p80
F0.1399999999999999
sS'Number'
p81
I2
sg9
S'Engine_FFC'
p82
sS'halfAngDeg'
p83
F15
sS'oxName'
p84
S'N2O4'
p85
sS'PfaceOvPc'
p86
F1.0480449773592573
sS'mr'
p87
F1.6799999999999999
sS'valvesMassInput'
p88
F0.089999999999999997
sS'Famb'
p89
F202
sS'eps'
p90
F27.593876669126033
sS'isBell'
p91
I1
sS'etaBL'
p92
F0.98209441822289423
sa(dp93
S'dpacq'
p94
F0
sS'VolCommonDomeEllipse'
p95
F0
sS'rho_cd'
p96
F0.16
sS'vresid'
p97
F1.042397983231059
sg24
F1.2680660907850971
sS'tblad'
p98
F0.029999999999999999
sS'rhobnd'
p99
F0.040000000000000001
sS'rcyltd'
p100
F1.8211351833710965
sS'NumExtraBaffles'
p101
I0
sS'makeCompositeTank'
p102
I1
sS'thkBladOut'
p103
F0.029999999999999999
sS'Across'
p104
F9.1551290803810783
sS'PVoverW'
p105
F488199.49663099821
sS'tming'
p106
F0.0080000000000000002
sS'matlName'
p107
S'grEpox'
p108
sS'WtExtraBaffles'
p109
F0
sS'sf_CommonDome'
p110
F1.5
sS'wtank'
p111
F1.1298838740219586
sS'vacqui'
p112
F0
sS'rholiner'
p113
F0.10100000000000001
sS'dinsid'
p114
F3.4141869284349462
sS'sf'
p115
F2
sS'thkcyl'
p116
F0.127907019033483
sS'hinsid'
p117
F8.3515627682504174
sg3
S'Center Helium Tank'
p118
sS'PburstVoverW'
p119
F976398.99326199642
sS'Pburst'
p120
F20000
sS'ptank'
p121
F10000
sS'expefi'
p122
F0.98999999999999999
sS'tming_cd'
p123
F0.029999999999999999
sg14
g15
sg7
I1
sS'ttrspc'
p124
F0.01
sS'matlCommonDome'
p125
g46
sg5
F1.4327674271721462
sS'rinsid'
p126
F1.7070934642174731
sg6
F3.4141869284349462
sS'tliner'
p127
F0.035000000000000003
sS'pullag'
p128
F10000
sS'tbond'
p129
F0.029999999999999999
sS'maxVolFrac_CommonDome'
p130
F0.75
sS'deltaPCommonDome'
p131
F100
sS'rho'
p132
F0.063700000000000007
sg8
F8.3515627682504174
sg13
F3.4141869284349462
sS'rhoacq'
p133
F0.28000000000000003
sS'ithcyl'
p134
I1
sS'cyl'
p135
F6.2176959379785766
sS'inpTblad'
p136
I1
sS'sy'
p137
F393000
sS'sy_cd'
p138
F119000
sS'e'
F35000000
sS'ell'
p139
F1.6000000000000001
sS'OH'
p140
F8.7872723992791268
sS'Cp_eff'
p141
F0.14999999999999999
sS'OD'
p142
F3.8000009665019121
sS'wacqui'
p143
F0
sg81
I1
sS'inpex'
p144
I0
sg9
S'Tank'
p145
sS'thkend'
p146
F0.15285481551435437
sS'wliner'
p147
F0.3525792037876187
sS'WtCommonDome'
p148
F0
sS'kacqui'
p149
I0
sS'e_cd'
p150
F15000000
sS'vtank'
p151
F69.94763367347322
sS'SAinsid'
p152
F94.59397258710861
sS'OR'
p153
F1.9000004832509561
sS'kalmod'
p154
I0
sS'hasCommonDome'
p155
I0
sa(dp156
g19
F0.97392343827365269
sg20
F202
sg21
F0.99181354172418079
sg22
F0.93806852044650668
sg23
F393.01686650972147
sg24
F0.90000000000000002
sg25
F80
sg26
F0.21882244038685111
sg27
F0.16
sg28
F0.14834924324297363
sg29
F119000
sg30
F375
sg31
F0.90000000000000002
sg32
F1
sg33
F35000000
sg34
F0.069002215346448403
sg35
F1.3999999999999999
sg36
F0.30961090000000002
sg37
F35.338297260666714
sg38
F0.94775752250048484
sg39
g40
sg41
g42
sg43
F1.3999999999999999
sg44
F0.02
sg45
g46
sg14
g15
sg47
F0.023088912947762788
sg48
F0.02
sg49
S'N2O4/MMH'
p157
sg51
F0.089999999999999997
sg52
F300
sg53
F15000000
sg54
F5738.8566471361746
sg55
F0
sg56
F6.5843470666233621
sg57
F0.88906149687407654
sg58
F1
sg59
F272.8189578410466
sg5
F2.9616710158051687
sg6
F3.435742891802231
sg7
I1
sg60
F0.99133116934288534
sg61
F22020
sg62
F3.435742891802231
sg63
F0.26342358135517768
sg64
F5383.4407640336312
sg65
F1.2412704523580367
sg8
F6.5843470666233621
sg66
F0.088105726872246701
sg13
F3.435742891802231
sg67
F4.192533524899182
sg68
F0.59484897836976502
sg69
F0.62727796120937107
sg3
S'Divert Engine'
p158
sg71
F2.5
sg72
F1.26
sg73
I0
sg74
I1
sg75
F2
sg76
F0.02
sg77
F0.02
sg78
F1
sg79
F0.20000000000000001
sg80
F0.1399999999999999
sg81
I4
sg9
g82
sg83
F15
sg84
g85
sg86
F1.0480449773592573
sg87
F1.6799999999999999
sg88
F0.089999999999999997
sg89
F202
sg90
F30
sg91
I1
sg92
F0.98164319687460577
sa(dp159
g3
S'Divert Structure'
p160
sg5
F5.2884666666666664
sg6
F1
sg7
I1
sg8
F1
sg9
g10
sg11
S'3.449  * (13.8/9.0) '
p161
sg13
F1
sg14
g15
sg16
g160
sa(dp162
g94
F76.811927737835248
sg124
F0.01
sg97
F5.3439420860527518
sg141
F0.14999999999999999
sg98
F0.029999999999999999
sg99
F0.040000000000000001
sg102
I0
sg103
F0.029999999999999999
sg104
F18.365244097538628
sg105
F110462.90174182477
sg106
F0.029999999999999999
sg107
g46
sg109
F0
sg111
F1.564203184948989
sg112
F8.7542023302504806
sg113
F0.10000000000000001
sg114
F4.8356338812714323
sg116
F0.030563254924130912
sS'RbigOvrRsml'
p163
F1.6818181818181817
sg3
S'Fuel Tank'
p164
sg119
F165694.35261273713
sg120
F1500
sg121
F1000
sg14
g15
sg7
I1
sg24
F1.25
sg5
F6.0990585775470372
sg126
F2.4178169406357162
sg6
F4.8356338812714323
sg127
F0
sg128
F1076.8119277378353
sg129
F0.029999999999999999
sg147
F0
sg132
F0.16
sg8
F19.349687499147169
sg13
F4.8356338812714323
sg133
F0.28000000000000003
sg134
I1
sg135
F16.327416323352523
sg136
I1
sg137
F118662.93102473616
sS'e'
F15000000
sg139
F1.6000000000000001
sg101
I0
sg143
F0.87542024606982605
sg81
I2
sg144
I0
sg9
S'Tank_Conical'
p165
sg146
F0.029999999999999999
sS'coneAngleDeg'
p166
F4.3134632793393193
sg122
F0.98999999999999999
sg149
I1
sg151
F336.85985418460592
sg152
F304.01315544464018
sg115
F1.5
sg154
I0
sa(dp167
g94
F0
sg95
F0
sg96
F0.16
sg97
F0.72771336051375102
sg24
F1.2680660907850971
sg98
F0.029999999999999999
sg99
F0.040000000000000001
sg100
F2.2658559602540715
sg101
I0
sg102
I1
sg103
F0.029999999999999999
sg104
F6.194304928704125
sg105
F463570.24392285699
sg106
F0.0080000000000000002
sg107
g108
sg109
F0
sg110
F1.5
sg111
F0.79383368227472395
sg112
F0
sg113
F0.10100000000000001
sg114
F2.8083507593201413
sg115
F2
sg116
F0.10521034189235724
sg117
F8.1185375310646783
sg3
S'Helium Tank'
p168
sg119
F927140.48784571397
sg120
F20000
sg121
F10000
sg122
F0.98999999999999999
sg123
F0.029999999999999999
sg14
g15
sg7
I1
sg124
F0.01
sg125
g46
sg5
F4.0265342968625921
sg126
F1.4041753796600707
sg6
F2.8083507593201413
sg127
F0.035000000000000003
sg128
F10000
sg129
F0.029999999999999999
sg130
F0.75
sg131
F100
sg132
F0.063700000000000007
sg8
F8.1185375310646783
sg13
F2.8083507593201413
sg133
F0.28000000000000003
sg134
I1
sg135
F6.3633183064895897
sg136
I1
sg137
F393000
sg138
F119000
sS'e'
F35000000
sg139
F1.6000000000000001
sg140
F8.5
sg141
F0.14999999999999999
sg142
F3.1487714431048559
sg143
F0
sg81
I4
sg144
I0
sg9
g145
sg146
F0.12573123446766088
sg147
F0.2787759888353647
sg148
F0
sg149
I0
sg150
F15000000
sg151
F46.664537154008528
sg152
F75.020653767803836
sg153
F1.574385721552428
sg154
I0
sg155
I0
sa(dp169
g3
S'Manifold Block'
p170
sg5
F1.3090837174709222
sg6
F1
sg7
I1
sg8
F1
sg9
g10
sg11
S'2.72352 * 2.45117**2 * 0.16 / 2.0'
p171
sg13
F1
sg14
g15
sg16
g170
sa(dp172
g3
S'Margin Mass'
p173
sg5
F1.8987517999999999
sg6
F1
sg7
I1
sg8
F1
sg9
g10
sg11
S'0.058*32.7371'
p174
sg13
F1
sg14
g15
sg16
g173
sa(dp175
g3
S'Misc. Wt'
p176
sg5
F2.367
sg6
F1
sg7
I1
sg9
S'Misc_Weights'
p177
sg8
F1
sg13
F1
sg14
g15
sS'itemsList'
p178
(lp179
(S'Electronics & Harnesses'
p180
F0.438
tp181
a(S'He Controls (pyro, reg, etc.)'
p182
F1.659
tp183
a(S'Ox and Fuel Burst Disks'
p184
F0.11
tp185
a(S'Ox and Fuel Service Valves'
p186
F0.12
tp187
a(S'Pressure Transducers'
p188
F0.040000000000000001
tp189
asa(dp190
g94
F76.558107079208213
sg124
F0.01
sg97
F5.4901198382295675
sg141
F0.14999999999999999
sg98
F0.029999999999999999
sg99
F0.040000000000000001
sg102
I0
sg103
F0.029999999999999999
sg104
F18.66812697997824
sg105
F110778.05311277982
sg106
F0.029999999999999999
sg107
g46
sg109
F0
sg111
F1.6030579701275403
sg112
F8.9005279648363267
sg113
F0.10000000000000001
sg114
F4.8753458848624991
sg116
F0.030814251612280234
sg163
F1.6818181818181817
sg3
S'Oxidizer Tank'
p191
sg119
F166167.07966916973
sg120
F1500
sg121
F1000
sg14
g15
sg7
I1
sg24
F1.25
sg5
F6.2327769496849825
sg126
F2.4376729424312495
sg6
F4.8753458848624991
sg127
F0
sg128
F1076.5581070792082
sg129
F0.029999999999999999
sg147
F0
sg132
F0.16
sg8
F19.508594248152349
sg13
F4.8753458848624991
sg133
F0.28000000000000003
sg134
I1
sg135
F16.461503070113288
sg136
I1
sg137
F118662.93102473616
sS'e'
F15000000
sg139
F1.6000000000000001
sg101
I0
sg143
F0.89005280974645284
sg81
I2
sg144
I0
sg9
g165
sg146
F0.029999999999999999
sg166
F4.3134632793393193
sg122
F0.98999999999999999
sg149
I1
sg151
F345.22744798615639
sg152
F309.02699464719001
sg115
F1.5
sg154
I0
sa(dp192
g3
S'Payload Mass'
p193
sg5
F21.670000000000002
sg6
F1
sg7
I1
sg8
F1
sg9
g10
sg11
S'21.67'
p194
sg13
F1
sg14
g15
sg16
g193
sa(dp195
g3
S'Tubing'
p196
sg5
F0.23049035714285715
sg6
F1
sg7
I1
sg8
F1
sg9
g10
sg11
S'0.19 * (13.8 + 20.167) / (10.0 + 18.0)'
p197
sg13
F1
sg14
g15
sg16
S'Tubing for Ox, Fuel and He'
p198
sa(dp199
S'densInit'
p200
F5.1864703507416481
sS'TfinalHeBot'
p201
F381.33090897309683
sg8
F1
sS'PHeTnk'
p202
F10000
sS'PfinalHeBot'
p203
F1000
sS'gamPolyCorr'
p204
F1.2
sS'rhoBotInitCold'
p205
F0.0030014762259970526
sS'tPolyCorr'
p206
F200
sS'PinitCold'
p207
F9290.860736036615
sS'compressInit'
p208
F1.3103583306271271
sS'gammaPoly'
p209
F1.1500000000000001
sS'symbol'
p210
S'He'
p211
sg6
F1
sS'TminR'
p212
F510
sg14
S'pressurant'
p213
sS'TmaxR'
p214
F550
sS'wtHeACS'
p215
F0
sg7
I1
sS'calibrateCalled'
p216
I0
sg13
F1
sS'gamLimPolyCorr'
p217
F1.1799999999999999
sS'tAction'
p218
F100
sS'rhoPropHe'
p219
F0.00046173483430513349
sS'PfinHeOvPnom'
p220
F1
sg3
S'Helium Pressurant'
p221
sS'THeTnkHX'
p222
F450
sS'rhoBotFinal'
p223
F0.00054084775310727479
sg9
S'PressurantHe'
p224
sS'PpropNom'
p225
F1000
sS'TfinalPropHe'
p226
F450
sS'densFinal'
p227
F0.93457039954541143
sa(dp228
S'minSummary'
p229
I0
sS'Vcrit'
p230
F1.9573600437962051e-06
sS'Tnbp'
p231
F650
sS'CpRef'
p232
F0.69999999999999996
sS'Pref'
p233
F14.699999999999999
sg30
F1195
sS'IerrSurfTen'
p234
I0
sS'Ccrit'
p235
F7.3984344975710542e-07
sS'DHvap'
p236
F376.89999999999998
sS'ViscRefFT'
p237
F0.00053039999999999999
sS'sonicV'
p238
F780.64996950520219
sS'Tc'
p239
F1053
sS'CPCOND'
p240
F-0.69999999999999996
sS'CPCONC'
p241
F-12
sS'CPCONB'
p242
F27
sS'CPCONA'
p243
F8.8200000000000003
sS'Dc'
p244
F0.0109368778137239
sS'Visc'
p245
F53.039999999999999
sS'suppressGasWarning'
p246
I0
sS'massBreakdown'
p247
(lp248
(S'Burned Divert'
p249
F17.910447761194025
tp250
a(S'Burned RCS'
p251
cnumpy.core.multiarray
scalar
p252
(cnumpy
dtype
p253
(S'f8'
I0
I1
tRp254
(I3
S'<'
NNNI-1
I-1
I0
tbS'\xe3O\x95\x14\xa4\xff\xfb?'
tRp255
tp256
a(S'Residual'
p257
g252
(g254
S'+_\x0f\xfe\xbe\xa4\xba?'
tRp258
tp259
asS'WtMol'
p260
F46.07
sS'iphase'
p261
I2
sS'CondRefFTHR'
p262
F0.14329440000000002
sg7
I1
sS'Dref'
p263
F54.543680000000002
sS'cpfact'
p264
F0.61693533192772954
sS'E'
F-0.049916918091735249
sS'D'
F54.543680000000002
sg6
F1
sS'H'
F0
sg210
S'MMH'
p265
sS'SurfRef'
p266
F0.00019320000000000001
sS'SurfTen'
p267
F0.00019320000000000001
sS'Tref'
p268
F530
sS'Q'
S'LIQUID'
p269
sS'P'
F14.699999999999999
sS'S'
F0
sS'T'
F530
sg132
F0.03156462962962963
sg8
F1
sg13
F1
sS'omega'
p270
F0.30692239990023723
sS'child'
p271
I0
sS'v65'
p272
F0
sg3
S'Monomethyl Hydrazine'
p273
sS'RhoRef'
p274
F0.03156462962962963
sS'ViscRef'
p275
F4.4199999999999997e-05
sg14
S'propellant'
p276
sS'useDsat'
p277
I1
sS'Pvap'
p278
F0.87550215982435142
sS'Zc'
p279
F0.28999999999999998
sg9
S'Inc_liquid'
p280
sS'CondRef'
p281
F3.3170000000000002e-06
sS'Href'
p282
F0
sS'Cond'
p283
F0.14329440000000002
sS'assumeSaturation'
p284
I1
sS'Cp'
p285
F0.69999999999999996
sS'Cv'
p286
F0.65686563924462771
sa(dp287
g229
I0
sg230
F2.7444078599564071e-06
sg231
F529.79999999999995
sg232
F0.378
sg233
F14.699999999999999
sg30
F1440
sg234
I0
sg235
F4.7405323726849714e-07
sg236
F178.19999999999999
sg237
F0.00026640000000000002
sg238
F551.05861224215346
sg239
F776.5
sg240
F0
sg241
F-5.0179999999999998
sg242
F19.23
sg243
F7.9000000000000004
sg244
F0.018847940126234131
sg245
F26.640000000000001
sg246
I0
sg247
(lp288
(g249
F30.089552238805975
tp289
a(g251
g252
(g254
S'\xe3O\x95\x14\xa4\xff\xfb?'
tRp290
tp291
a(g257
g252
(g254
S'\xdb\x07\xc4\xba)X\xf9?'
tRp292
tp293
asg260
F92.016000000000005
sg261
I2
sg262
F0.075945600000000002
sg7
I1
sg263
F89.987041989974074
sg264
F0.55692117610161407
sS'E'
F-0.030256049613067215
sS'D'
F89.987041989974074
sg6
F1
sS'H'
F0.010908643738044644
sg210
S'N2O4'
p294
sg266
F0.00014329999999999999
sg267
F0.00014329999999999999
sg268
F530
sS'Q'
g269
sS'P'
F20
sS'S'
F0
sS'T'
F530
sg132
F0.052075834484938702
sg8
F1
sg13
F1
sg270
F0.82183580088695174
sg271
I0
sg272
F0
sg3
S'Nitrogen Tetroxide'
p295
sg274
F0.052075834484938702
sg275
F2.2200000000000001e-05
sg14
g276
sg277
I1
sg278
F14.786359576754103
sg279
F0.28999999999999998
sg9
g280
sg281
F1.7579999999999999e-06
sg282
F0.010908643738044644
sg283
F0.075945600000000002
sg284
I1
sg285
F0.378
sg286
F0.35640375586854461
sa(dp296
S'pressTankEllRatio_units'
p297
S''
sS'pressTankEllRatio_feas'
p298
S''
sS'Itot'
p299
g252
(g254
S'\x03\xd0\x19<\xa6W\xcb@'
tRp300
sg25
F80
sS'WtProp'
p301
F48
sS'Pc_feas'
p302
S''
sS'apexTankEllRatio'
p303
F1.6000000000000001
sS'deltaV_SI_Axial'
p304
g252
(g254
S'\xa5w\xc5FaY\x92@'
tRp305
sS'massValid'
p306
I1
sS'pcentBell_units'
p307
S'%'
sS'htBlock'
p308
F2.7235199855746006
sS'pcentACS_desc'
p309
S'HLACS Percent of Total Impulse'
p310
sS'PHe_feas'
p311
S''
sS'Ptank'
p312
F1000
sS'MR_desc'
p313
S'Engine Mixture Ratio'
p314
sS'lcylOvDox'
p315
F3.3764790147966202
sS'summFileName'
p316
S'D:\\2018_py_proj\\PRISM\\prism\\examples\\Conical_MMH\\Conical_MMH.summary'
p317
sS'Pc_desc'
p318
S'Engine Chamber Pressure'
p319
sS'Wpayload_desc'
p320
g193
sS'pcentACS_units'
p321
S'%'
sS'pressTankEllRatio_desc'
p322
S'Pressure Tank Ellipse Ratio'
p323
sS'splashText'
p324
S'------------------------------------------------------------\n(PRISM) PaRametrIc System Model\nPRISM v1.1.7\ncontact: C. Taylor, cet@appliedpython.com\n------------------------------------------------------------'
p325
sS'DACSMass'
p326
g252
(g254
S'y\x01Po@%V@'
tRp327
sS'WtProp_feas'
p328
S''
sS'deltaV'
p329
g252
(g254
S'\x04=\xfez\x08\x81\xb5@'
tRp330
sS'author'
p331
S'Prymatt Conehead'
p332
sS'pcentBell_desc'
p333
S'Percent Bell Nozzle Contour'
p334
sS'Lpackage'
p335
g252
(g254
S'nk\xfb*\xc1*4@'
tRp336
sS'pressTankEllRatio'
p337
F1.6000000000000001
sS'outputPath'
p338
S'D:\\2018_py_proj\\PRISM\\prism\\examples\\Conical_MMH\\'
p339
sS'scriptName'
p340
S'Conical_MMH.py'
p341
sS'splash'
p342
S'(PRISM) PaRametrIc System Model\nPRISM v1.1.7\ncontact: C. Taylor, cet@appliedpython.com\n'
p343
sS'Wpayload_feas'
p344
S''
sS'IspAxial'
p345
g252
(g254
S'n\xa9q\xb6\x89,r@'
tRp346
sS'apexTankEllRatio_units'
p347
S''
sS'PHe_desc'
p348
S'Helium Tank Pressure'
p349
sS'_close_was_called'
p350
I0
sS'deltaV_Divert'
p351
g252
(g254
S'\x05\x00\x00\x00\x00\xa2\x99@'
tRp352
sS'Wpayload_units'
p353
S'lbm'
p354
sg30
F375
sS'WtProp_desc'
p355
S'Usable Divert Propellant Mass'
p356
sS'deltaV_SI_Divert'
p357
g252
(g254
S'\x06\x00\x00\x00\x00@\x7f@'
tRp358
sS'apexTankEllRatio_feas'
p359
S''
sS'Fdivert'
p360
F202
sS'Wpayload'
p361
F21.670000000000002
sS'deltaV_SI'
p362
g252
(g254
S'\xe1\xfa\xca\xabh7\x9a@'
tRp363
sS'Isp'
p364
g252
(g254
S'\x02\xe0\xbb\xd2n:r@'
tRp365
sS'MR_units'
p366
S''
sS'lcylOvDfuel'
p367
F3.3764790147966202
sS'Fdivert_desc'
p368
S'Divert Thrust'
p369
sS'Pc_units'
p370
S'psia'
p371
sS'MR_feas'
p372
S''
sS'constraintTolerance'
p373
F0.0050000000000000001
sS'PHe'
p374
F10000
sS'programName'
p375
S'PRISM (PaRametrIc System Model)'
p376
sS'pickleFileName'
p377
S'D:\\2018_py_proj\\PRISM\\prism\\examples\\Conical_MMH\\Conical_MMH.pickle'
p378
sS'tBurnAxial'
p379
g252
(g254
S'\r6\x069\xb0j:@'
tRp380
sS'LenEngineGoal'
p381
F6.1561398437068648
sS'Fdivert_units'
p382
S'lbf'
p383
sg3
S'N2O4/MMH Conical KV'
p384
sS'WtProp_units'
p385
g354
sS'render_count'
p386
I3
sg14
S'bi-propellant'
p387
sS'Fdivert_feas'
p388
S''
sS'POVFileName'
p389
S'D:\\2018_P~1\\PRISM\\prism\\examples\\CONICA~1\\Conical_MMH.pov'
p390
sS'PHe_units'
p391
g371
sS'apexTankEllRatio_desc'
p392
S'Apex Tank Ellipse Ratio'
p393
sS'endGameGeesPhi45'
p394
g252
(g254
S'\xf8V\x0e\xda\x13[\x12@'
tRp395
sg9
S'SysModel'
p396
sS'pcentACS'
p397
F5
sS'deltaV_Axial'
p398
g252
(g254
S' #,G\r\x1a\xae@'
tRp399
sS'AreaRatioDivert'
p400
F30
sS'htmlFileName'
p401
S'D:\\2018_py_proj\\PRISM\\prism\\examples\\Conical_MMH.htm'
p402
sS'pcentACS_feas'
p403
S''
sS'MR'
p404
F1.6799999999999999
sS'sysMass'
p405
g252
(g254
S'\xf4\x15\xfe\xb6!\x90[@'
tRp406
sS'AreaRatioAxial'
p407
F27.593876669126033
sS'pcentBell_feas'
p408
S''
sa.