(lp1
(dp2
S'etaKin'
p3
F1
sS'Fvac'
p4
F300
sS'Dcham'
p5
F1.1071340879426084
sS'etaERE'
p6
F0.91600000000000004
sS'PcFace'
p7
F401.92261769524299
sS'cxw'
p8
F1.25
sS'pcentBell'
p9
F80
sS'WtNoz'
p10
F0.13996143529701793
sS'rhoInj'
p11
F0.28000000000000003
sS'WtInj'
p12
F0.36110537333646525
sS'syInj'
p13
F50000
sS'Pc'
p14
F375
sS'xlnOverLcham'
p15
F0.5
sS'etaKinInp'
p16
F1
sS'eNoz'
p17
F35000000
sS'WtMisc'
p18
F0.12830081379646022
sS'LchamMin'
p19
F1.03
sS'rhoNoz'
p20
F0.30961090000000002
sS'SAnoz'
p21
F22.602795201496122
sS'etaNoz'
p22
F0.97562724145140445
sS'matlNoz'
p23
S'Cb103'
p24
sS'fuelName'
p25
S'M20'
p26
sS'Lcham'
p27
F1.03
sS'thkNozMin'
p28
F0.02
sS'matlInj'
p29
S'SS'
p30
sS'type'
p31
S'inert'
p32
sS'WtChamber'
p33
F0.020960056598901822
sS'thkNoz'
p34
F0.02
sS'iprop'
p35
S'N2O4/M20'
p36
sS'inputIspDel'
p37
I0
sS'IspDel'
p38
F300
sS'eInj'
p39
F29000000
sS'CstarODE'
p40
F5784.7207184648487
sS'Pamb'
p41
F14.699999999999999
sS'Lengine'
p42
F4.4744787588902222
sS'effIsp'
p43
F0.89367455316948652
sS'cxwInj'
p44
F1
sS'pov_w'
p45
F2.3485860638010054
sS'autoCalc'
p46
I1
sS'etaDiv'
p47
F0.98686498102678577
sS'syNoz'
p48
F22020
sS'Dexit'
p49
F2.3485860638010054
sS'WtAcoustic'
p50
F0.21605604844047441
sS'Cstar'
p51
F5298.8041781138018
sS'ratmlr'
p52
F1.2668762278978389
sS'pov_h'
p53
F4.4744787588902222
sS'CR'
p54
F2
sS'pov_d'
p55
F2.3485860638010054
sS'Lnoz'
p56
F2.3373446709476142
sS'dChar'
p57
F0.81112896195390782
sS'Dt'
p58
F0.78286202126700177
sS'name'
p59
S'Divert Engine'
p60
sS'xln'
p61
F0.51500000000000001
sS'calcEtaNoz'
p62
I1
sS'LoverDt'
p63
F0.01
sS'thkCham'
p64
F0.02
sS'tmingNoz'
p65
F0.02
sS'cxwValves'
p66
F1
sS'minBipropValveWt'
p67
F0.20000000000000001
sS'xlc'
p68
F0.51500000000000001
sS'Number'
p69
I1
sS'className'
p70
S'Engine_FFC'
p71
sS'halfAngDeg'
p72
F15
sS'oxName'
p73
S'N2O4'
p74
sS'mode'
p75
S'Separated (Psep=5.12724, epsSep=9.23668)'
p76
sS'PfaceOvPc'
p77
F1.0717936471873146
sS'mr'
p78
F1
sS'eps'
p79
F9
sS'isBell'
p80
I1
sS'etaBL'
p81
F0.98861268786365386
sa(dp82
g59
S'Divert Structure'
p83
sS'mass_lbm'
p84
F0.7991534037735849
sg45
F1
sg46
I1
sg53
F1
sg70
S'SimpleEqnMass'
p85
sS'eqn'
p86
S'1.1 * (9.9/10.0) * (3.88936/5.3)'
p87
sg55
F1
sg31
g32
sS'desc'
p88
g83
sa(dp89
S'dpacq'
p90
F58.193712641410549
sS'VolCommonDomeEllipse'
p91
F0
sS'rho_cd'
p92
F0.16
sS'vresid'
p93
F5.6575989488600289
sg8
F2.1886514369933683
sS'tblad'
p94
F0.029999999999999999
sS'rhobnd'
p95
F0.040000000000000001
sS'rcyltd'
p96
F0.082157418229111004
sS'NumExtraBaffles'
p97
I0
sS'VolLimit_cd'
p98
F212.1599605822509
sS'makeCompositeTank'
p99
I0
sS'thkBladOut'
p100
F0.029999999999999999
sS'Across'
p101
F74.569277399972151
sS'vfree'
p102
F282.87994744300119
sS'PVoverW'
p103
F79919.24865829917
sS'tming'
p104
F0.0080000000000000002
sS'matlName'
p105
S'grEpox'
p106
sS'WtExtraBaffles'
p107
F0
sS'sf_CommonDome'
p108
F1.5
sS'wtank'
p109
F1.0180306919977622
sS'vacqui'
p110
F6.5514317400619948
sS'rholiner'
p111
F0.10000000000000001
sS'dinsid'
p112
F9.7439495487184562
sS'sf'
p113
F1.5
sS'thkcyl'
p114
F0.018026727248490509
sS'hinsid'
p115
F5.672512512636648
sg59
S'Fuel Tank'
p116
sS'PburstVoverW'
p117
F119878.87298744876
sS'Pburst'
p118
F1454.1339265428644
sS'ptank'
p119
F969.42261769524293
sS'expefi'
p120
F0.97999999999999998
sS'tming_cd'
p121
F0.029999999999999999
sg31
g32
sg46
I1
sS'ttrspc'
p122
F0.01
sS'matlCommonDome'
p123
S'Ti'
p124
sg84
F3.661994407535798
sS'rinsid'
p125
F4.8719747743592281
sg45
F9.7439495487184562
sS'tliner'
p126
F0.029999999999999999
sS'pullag'
p127
F1027.6163303366534
sS'tbond'
p128
F0.029999999999999999
sS'maxVolFrac_CommonDome'
p129
F0.75
sS'deltaPCommonDome'
p130
F100
sS'rho'
p131
F0.063700000000000007
sg53
F5.672512512636648
sg55
F9.7439495487184562
sS'rhoacq'
p132
F0.10000000000000001
sS'ithcyl'
p133
I1
sS'cyl'
p134
F0.80053773827741959
sS'inpTblad'
p135
I1
sS'sy'
p136
F393000
sS'sy_cd'
p137
F119000
sS'e'
F35000000
sS'ell'
p138
F2
sS'OH'
p139
F5.8284772520399466
sS'Cp_eff'
p140
F0.14999999999999999
sS'OD'
p141
F9.9000030032154385
sS'wacqui'
p142
F0.65514318376859348
sg69
I1
sS'inpex'
p143
I1
sg70
S'Tank'
p144
sS'thkend'
p145
F0.017982369701649452
sS'wliner'
p146
F0.6910274930376783
sS'WtCommonDome'
p147
F0
sS'kacqui'
p148
I1
sS'e_cd'
p149
F15000000
sS'vtank'
p150
F301.89500048693833
sS'SAinsid'
p151
F230.34268355963624
sS'OR'
p152
F4.9500015016077192
sS'kalmod'
p153
I0
sS'hasCommonDome'
p154
I0
sa(dp155
g90
F0
sg91
F0
sg92
F0.16
sg93
F0.35722953862781082
sg8
F1.2680660907850971
sg94
F0.029999999999999999
sg95
F0.040000000000000001
sg96
F0.99313438641582463
sg97
I0
sg98
F15.537932740732991
sg99
I1
sg100
F0.029999999999999999
sg101
F5.5988151624422935
sg102
F20.717243654310654
sg103
F414819.81424161082
sg104
F0.0080000000000000002
sg105
g106
sg107
F0
sg108
F1.5
sg109
F0.4006409576031924
sg110
F0
sg111
F0.10100000000000001
sg112
F2.6699499749029667
sg113
F2
sg114
F0.10002537922400936
sg115
F4.3203378644005586
sg59
S'Helium Tank'
p156
sg117
F829639.62848322163
sg118
F20000
sg119
F10000
sg120
F0.98999999999999999
sg121
F0.029999999999999999
sg31
g32
sg46
I1
sg122
F0.01
sg123
g124
sg84
F2.0321568516651123
sg125
F1.3349749874514834
sg45
F2.6699499749029667
sg126
F0.035000000000000003
sg127
F10000
sg128
F0.029999999999999999
sg129
F0.75
sg130
F100
sg131
F0.063700000000000007
sg53
F4.3203378644005586
sg55
F2.6699499749029667
sg132
F0.28000000000000003
sg133
I1
sg134
F2.6516191300862042
sg135
I1
sg136
F393000
sg137
F119000
sS'e'
F35000000
sg138
F1.6000000000000001
sg139
F4.6894077919709432
sg140
F0.14999999999999999
sg141
F3.0000007333509853
sg142
F0
sg69
I4
sg143
I0
sg70
g144
sg145
F0.11953496378519221
sg146
F0.15012766200406952
sg147
F0
sg148
I0
sg149
F15000000
sg150
F21.074473192938463
sg151
F39.305608664717937
sg152
F1.5000003666754926
sg153
I0
sg154
I0
sa(dp157
g59
S'Manifold Block'
p158
sg84
F0.7035021458464088
sg45
F1
sg46
I1
sg53
F1
sg70
g85
sg86
S'2.21427 * 1.99284**2 * 0.16 / 2.0'
p159
sg55
F1
sg31
g32
sg88
g158
sa(dp160
g90
F59.502509786634903
sg91
F0
sg92
F0.16
sg93
F3.8405529547076949
sg8
F2.1886514369933683
sg94
F0.029999999999999999
sg95
F0.040000000000000001
sg96
F0
sg97
I0
sg98
F144.02073580153842
sg99
I0
sg100
F0.029999999999999999
sg101
F67.06063074120064
sg102
F192.02764773538456
sg103
F70048.192882997595
sg104
F0.0080000000000000002
sg105
g106
sg107
F0
sg108
F1.5
sg109
F0.78296488287318877
sg110
F5.2312921388343652
sg111
F0.10000000000000001
sg112
F9.2403596766889518
sg113
F1.5
sg114
F0.017052999202391075
sg115
F4.6201798383444759
sg59
S'Oxidizer Tank'
p161
sg117
F105072.28932449639
sg118
F1454.1339265428644
sg119
F969.42261769524293
sg120
F0.97999999999999998
sg121
F0.029999999999999999
sg31
g32
sg46
I1
sg122
F0.01
sg123
g124
sg84
F2.8585847387759911
sg125
F4.6201798383444759
sg45
F9.2403596766889518
sg126
F0.029999999999999999
sg127
F1028.9251274818778
sg128
F0.029999999999999999
sg129
F0.75
sg130
F100
sg131
F0.063700000000000007
sg53
F4.6201798383444759
sg55
F9.2403596766889518
sg132
F0.10000000000000001
sg133
I1
sg134
F0
sg135
I1
sg136
F393000
sg137
F119000
sS'e'
F35000000
sg138
F2
sg139
F4.7742858367492582
sg140
F0.14999999999999999
sg141
F9.3944656750937341
sg142
F0.52312922167866927
sg69
I1
sg143
I1
sg70
g144
sg145
F0.017052999202391075
sg146
F0.55533118258983405
sg147
F0
sg148
I1
sg149
F15000000
sg150
F206.55459393987741
sg151
F185.11054357588935
sg152
F4.697232837546867
sg153
I0
sg154
I0
sa(dp162
g59
S'Payload Mass'
p163
sg84
F33.069299999999998
sg45
F1
sg46
I1
sg53
F1
sg70
g85
sg86
S'33.0693'
p164
sg55
F1
sg31
g32
sg88
g163
sa(dp165
S'LcylOvDTank'
p166
F1
sS'LcylOvDBottle'
p167
F1
sS'WtGasResid'
p168
F0.052651421095982365
sS'fracIsenTank'
p169
F0.02942903405905159
sS'densFinal'
p170
F1.0978976881768596
sS'WtHeLLACS'
p171
F0
sS'Vbottle'
p172
F82.868974617242614
sS'WGasExpended'
p173
F0.19607783609042453
sS'PfinGasOvPnom'
p174
F1.1000000000000001
sS'timeExpel'
p175
F100
sS'wdotGas'
p176
F0.0019607783609042456
sS'vdotLiq'
p177
F4.6066036732303415
sS'VpropTnk'
p178
F474.90759517838575
sS'gamPolyBottle'
p179
F1.2240074247650712
sS'PVoW_Bottle'
p180
F500000
sS'Vullage'
p181
F14.247227855351571
sS'compressInit'
p182
F1.3103583306271271
sS'Cp_effTank'
p183
F0.14999999999999999
sS'ullageFrac'
p184
F0.029999999999999999
sS'wtHeACS'
p185
F0
sS'PpropNom'
p186
F969.42261769524293
sS'ellTank'
p187
F1.4139999999999999
sS'TminR'
p188
F510
sS'TfinalGasBot'
p189
F343.17204336717236
sS'gammaIsen'
p190
F1.621437077072847
sg31
S'pressurant'
p191
sS'tAction'
p192
F100
sS'useDBruns'
p193
I1
sS'velMultTank'
p194
F1
sS'TfinalPropGas'
p195
F490.55220500161528
sS'gamPolyTank'
p196
F1.0182882929067343
sS'dPregulator'
p197
F5
sg84
F0.2487292571864069
sS'PHeTnk'
p198
F10000
sS'Nbottle'
p199
I2
sg46
I1
sg45
F1
sS'gas'
p200
S'HE'
p201
sS'NtimeSteps'
p202
I400
sS'fracIsenBottle'
p203
F0.36046678421605066
sS'PfinalBlowdown'
p204
F970.44437423994998
sg53
F1
sg55
F1
sS'Vliq'
p205
F460.66036732303417
sS'WtGasTotal'
p206
F0.2487292571864069
sS'PVoW_Tank'
p207
F100000
sg59
S'Helium Pressurant'
p208
sS'PfinalGasBot'
p209
F1066.3648794647672
sS'Cp_effBottle'
p210
F0.14999999999999999
sS'densInit'
p211
F5.1865509185229071
sS'AccGees'
p212
F1
sS'QexternalIntoBottle'
p213
F0
sg70
S'PressurantInteg'
p214
sS'Ntank'
p215
I2
sS'PbottleCold'
p216
F9290.860736036615
sS'ellBottle'
p217
F1.3999999999999999
sS'densFinalProp'
p218
F0.7127230556728521
sS'PGasTnkMEOP'
p219
F10000
sS'TmaxR'
p220
F550
sa(dp221
S'minSummary'
p222
I0
sS'Vcrit'
p223
F1.420532402573259e-06
sS'Tnbp'
p224
F687.84000000000003
sS'CpRef'
p225
F0.72808000000000006
sS'Pref'
p226
F14.699999999999999
sg14
F1943.8000000000002
sS'IerrSurfTen'
p227
I0
sS'Ccrit'
p228
F1.2568838930726137e-06
sS'DHvap'
p229
F541.77999999999997
sS'ViscRefFT'
p230
F0.00059692800000000004
sS'sonicV'
p231
F905.6209413306309
sS'Tc'
p232
F1150.5999999999999
sS'CPCOND'
p233
F1.1928000000000001
sS'CPCONC'
p234
F-10.2544
sS'CPCONB'
p235
F23.960000000000001
sS'CPCONA'
p236
F4.8760000000000003
sS'Dc'
p237
F0.011860617248114432
sS'Volume'
p238
F288.65300759489918
sS'Visc'
p239
F59.692800000000005
sS'suppressGasWarning'
p240
I0
sS'massBreakdown'
p241
(lp242
(S'Burned Divert'
p243
F9
tp244
a(S'Burned RCS'
p245
F1
tp246
a(S'Residual'
p247
F0.20408163265306145
tp248
asS'WtMol'
p249
F34.852400000000003
sS'iphase'
p250
I2
sS'CondRefFTHR'
p251
F0.25502688000000001
sg46
I1
sS'Dref'
p252
F61.085984199999992
sS'cpfact'
p253
F0.60607331116183438
sS'E'
F-0.044570820011144527
sS'D'
F61.085984199999992
sg84
F10.204081632653061
sg45
F1
sS'H'
F0
sS'symbol'
p254
S'M20'
p255
sS'SurfRef'
p256
F0.00034216000000000004
sS'SurfTen'
p257
F0.00034216000000000004
sS'Tref'
p258
F530
sS'Q'
S'LIQUID'
p259
sS'P'
F14.699999999999999
sS'S'
F0
sS'T'
F530
sg131
F0.035350685300925923
sg53
F1
sg55
F1
sS'omega'
p260
F0.33289873921022078
sS'child'
p261
I0
sS'v65'
p262
F0
sg59
g255
sS'RhoRef'
p263
F0.035350685300925923
sS'ViscRef'
p264
F4.9744000000000003e-05
sg31
S'propellant'
p265
sS'useDsat'
p266
I1
sS'Pvap'
p267
F0.27429236542670127
sS'Zc'
p268
F0.28999999999999998
sg70
S'Inc_liquid'
p269
sS'CondRef'
p270
F5.9034000000000009e-06
sS'Href'
p271
F0
sS'Cond'
p272
F0.25502688000000001
sS'assumeSaturation'
p273
I1
sS'Cp'
p274
F0.72808000000000006
sS'Cv'
p275
F0.67106240580275678
sa(dp276
g222
I0
sg223
F2.7444078599564071e-06
sg224
F529.79999999999995
sg225
F0.378
sg226
F14.699999999999999
sg14
F1440
sg227
I0
sg228
F4.7405323726849714e-07
sg229
F178.19999999999999
sg230
F0.00026640000000000002
sg231
F551.05861224215346
sg232
F776.5
sg233
F0
sg234
F-5.0179999999999998
sg235
F19.23
sg236
F7.9000000000000004
sg237
F0.018847940126234131
sg238
F195.94657932182096
sg239
F26.640000000000001
sg240
I0
sg241
(lp277
(g243
F9
tp278
a(g245
F1
tp279
a(g247
F0.20408163265306145
tp280
asg249
F92.016000000000005
sg250
I2
sg251
F0.075945600000000002
sg46
I1
sg252
F89.987041989974074
sg253
F0.55692117610161407
sS'E'
F-0.030256049613067215
sS'D'
F89.987041989974074
sg84
F10.204081632653061
sg45
F1
sS'H'
F0.010908643738044644
sg254
S'N2O4'
p281
sg256
F0.00014329999999999999
sg257
F0.00014329999999999999
sg258
F530
sS'Q'
g259
sS'P'
F20
sS'S'
F0
sS'T'
F530
sg131
F0.052075834484938702
sg53
F1
sg55
F1
sg260
F0.82183580088695174
sg261
I0
sg262
F0
sg59
S'Nitrogen Tetroxide'
p282
sg263
F0.052075834484938702
sg264
F2.2200000000000001e-05
sg31
g265
sg266
I1
sg267
F14.786359576754103
sg268
F0.28999999999999998
sg70
g269
sg270
F1.7579999999999999e-06
sg271
F0.010908643738044644
sg272
F0.075945600000000002
sg273
I1
sg274
F0.378
sg275
F0.35640375586854461
sa(dp283
S'pcentWpACS'
p284
F10
sS'Itot'
p285
cnumpy.core.multiarray
scalar
p286
(cnumpy
dtype
p287
(S'f8'
I0
I1
tRp288
(I3
S'<'
NNNI-1
I-1
I0
tbS'\x88\xac\x05\xf6\xe9>\xb3@'
tRp289
sS'WtProp_desc'
p290
S'Usable Divert+ACS Propellant Mass'
p291
sg9
F80
sS'WtProp'
p292
F20
sS'Pc_feas'
p293
S''
sS'Wpayload_feas'
p294
S''
sS'massValid'
p295
I1
sg14
F375
sS'rhoBulk'
p296
F0.042113455760772911
sS'Ptank'
p297
F969.42261769524293
sS'pcentWpACS_desc'
p298
S'HLACS Percent of Propellant'
p299
sS'summFileName'
p300
S'D:\\2018_py_proj\\PRISM\\prism\\examples\\M20_divert_stg\\M20_divert_stg.summary'
p301
sS'ThrustVac_desc'
p302
S'Engine Vacuum Thrust'
p303
sS'MR_desc'
p304
S'Engine Mixture Ratio'
p305
sS'pcentWpACS_units'
p306
S'%'
sS'PHe_feas'
p307
S''
sS'splashText'
p308
S'------------------------------------------------------------\n(PRISM) PaRametrIc System Model\nPRISM v1.1.7\ncontact: C. Taylor, cet@appliedpython.com\n------------------------------------------------------------'
p309
sS'DACSMass'
p310
g286
(g288
S'\xf4`|Y5\x10A@'
tRp311
sS'WtProp_feas'
p312
S''
sS'pcentBell_units'
p313
S'%'
sS'author'
p314
S'I.M. Pacter'
p315
sS'IspSL'
p316
g286
(g288
S'%J\xea\xd1<%k@'
tRp317
sS'AreaRatio'
p318
F9
sS'Lpackage'
p319
F15.174346655952684
sS'outputPath'
p320
S'D:\\2018_py_proj\\PRISM\\prism\\examples\\M20_divert_stg\\'
p321
sS'scriptName'
p322
S'M20_divert_stg.py'
p323
sS'splash'
p324
S'(PRISM) PaRametrIc System Model\nPRISM v1.1.7\ncontact: C. Taylor, cet@appliedpython.com\n'
p325
sS'Pc_desc'
p326
S'Engine Chamber Pressure'
p327
sS'ThrustVac_units'
p328
S'lbf'
p329
sS'FdivertSL'
p330
g286
(g288
S'P\xd1\x9e=\x82\xc0m@'
tRp331
sS'PHe_desc'
p332
S'Helium Tank Pressure'
p333
sS'_close_was_called'
p334
I0
sS'MR'
p335
F1
sS'MR_units'
p336
S''
sS'pcentWpACS_feas'
p337
S''
sS'eps_units'
p338
S''
sS'ThrustVac'
p339
F300
sS'Wpayload'
p340
F33.069299999999998
sS'Isp'
p341
g286
(g288
S"\x95'\xcc\xa1z\x1bq@"
tRp342
sS'Vhelium'
p343
F82.868974617242614
sS'PHe'
p344
F10000
sS'Pc_units'
p345
S'psia'
p346
sS'MR_feas'
p347
S''
sS'constraintTolerance'
p348
F0.0050000000000000001
sS'programName'
p349
S'PRISM (PaRametrIc System Model)'
p350
sS'pickleFileName'
p351
S'D:\\2018_py_proj\\PRISM\\prism\\examples\\M20_divert_stg\\M20_divert_stg.pickle'
p352
sS'Wpayload_desc'
p353
g163
sS'FdivertVac'
p354
F300
sS'LcylOx'
p355
F0
sS'eps_feas'
p356
S''
sS'ItotSL'
p357
g286
(g288
S"j\x93'l\xe4\x89\xae@"
tRp358
sg59
S'N2O4/M20 Ascent Phase'
p359
sS'WtProp_units'
p360
S'lbm'
p361
sS'render_count'
p362
I3
sg31
S'bi-propellant'
p363
sS'POVFileName'
p364
S'D:\\2018_P~1\\PRISM\\prism\\examples\\M20_DI~1\\M20_divert_stg.pov'
p365
sS'PHe_units'
p366
g346
sg79
F9
sg70
S'SysModel'
p367
sS'OxTankOD'
p368
F9.3944656750937341
sS'eps_desc'
p369
S'Nozzle Area Ratio'
p370
sS'htmlFileName'
p371
S'D:\\2018_py_proj\\PRISM\\prism\\examples\\M20_divert_stg.htm'
p372
sS'Wpayload_units'
p373
g361
sS'pcentBell_desc'
p374
S'Percent Bell Nozzle Contour'
p375
sS'sysMass'
p376
g286
(g288
S'\xb2\x97\x02\x16\x8a\xccP@'
tRp377
sS'ThrustVac_feas'
p378
S''
sS'pcentBell_feas'
p379
S''
sa.